; Function Attrs: mustprogress uwtable
define hidden void @_ZN3ue215checkReferencesERKNS_9ComponentEjRKNS_8flat_setINSt7__cxx1112basic_stringIcSt11char_traitsIcESaIcEEESt4lessIS9_ESaIS9_EEE(ptr noundef nonnull align 8 dereferenceable(16) %0, i32 noundef %1, ptr noundef nonnull align 8 dereferenceable(56) %2) local_unnamed_addr #3 personality ptr @__gxx_personality_v0 {
  %4 = alloca %"class.ue2::ReferenceVisitor", align 8
  call void @llvm.lifetime.start.p0(i64 24, ptr nonnull %4) #11
  %5 = zext i32 %1 to i64
  call void @_ZN3ue228DefaultConstComponentVisitorC2Ev(ptr noundef nonnull align 8 dereferenceable(24) %4)
  store ptr getelementptr inbounds nuw inrange(-16, 352) (i8, ptr @_ZTVN3ue216ReferenceVisitorE, i64 16), ptr %4, align 8
  %6 = getelementptr inbounds nuw i8, ptr %4, i64 8
  store i64 %5, ptr %6, align 8
  %7 = getelementptr inbounds nuw i8, ptr %4, i64 16
  store ptr %2, ptr %7, align 8
  %8 = load ptr, ptr %0, align 8
  %9 = getelementptr inbounds nuw i8, ptr %8, i64 32
  %10 = load ptr, ptr %9, align 8
  invoke void %10(ptr noundef nonnull align 8 dereferenceable(16) %0, ptr noundef nonnull align 8 dereferenceable(8) %4)
          to label %11 unwind label %12

11:                                               ; preds = %3
  call void @_ZN3ue228DefaultConstComponentVisitorD2Ev(ptr noundef nonnull align 8 dereferenceable(24) %4) #11
  call void @llvm.lifetime.end.p0(i64 24, ptr nonnull %4) #11
  ret void

12:                                               ; preds = %3
  %13 = landingpad { ptr, i32 }
          cleanup
  call void @_ZN3ue228DefaultConstComponentVisitorD2Ev(ptr noundef nonnull align 8 dereferenceable(24) %4) #11
  call void @llvm.lifetime.end.p0(i64 24, ptr nonnull %4) #11
  resume { ptr, i32 } %13
}